target datalayout = "e-m:e-p270:32:32-p271:32:32-p272:64:64-i64:64-i128:128-f80:128-n8:16:32:64-S128"
target triple = "x86_64-pc-linux-gnu"

%struct.RoseEngine = type { i8, i8, i8, i8, i8, i8, i8, i8, i8, i32, i32, i32, i32, i32, i32, i32, i32, i32, i32, i32, i32, i32, i32, i32, i32, i32, i32, i32, i32, i32, i32, i32, i32, i32, i32, i32, i32, i32, i32, i32, i32, i32, i32, i32, i32, i32, i32, i32, i32, i32, i32, i32, i32, i32, i32, i32, i32, i32, i32, i32, i32, i32, i32, i32, i32, i32, i64, i64, i32, i32, i32, i32, i32, i32, i32, %struct.RoseStateOffsets, %struct.RoseBoundaryReports, i32, i32, i32, i32, i32, i32, i32, i32, i32, i32, i32, i32, %struct.scatter_full_plan }
%struct.RoseStateOffsets = type { i32, i32, i32, i32, i32, i32, i32, i32, i32, i32, i32, i32, i32, i32, i32, i32, i32, i32, i32, i32, i32, i32, i32 }
%struct.RoseBoundaryReports = type { i32, i32, i32 }
%struct.scatter_full_plan = type { i32, i32, i32, i32, i32, i32, i32, i32 }
%struct.hs_database = type { i32, i32, i32, i64, i32, i32, i32, i32, [16 x i32], [0 x i8] }

; Function Attrs: alwaysinline nounwind uwtable
define internal ptr @hs_get_bytecode(ptr noundef %0) #3 {
  %2 = alloca ptr, align 8
  store ptr %0, ptr %2, align 8
  %3 = load ptr, ptr %2, align 8
  %4 = load ptr, ptr %2, align 8
  %5 = getelementptr inbounds nuw %struct.hs_database, ptr %4, i32 0, i32 7
  %6 = load i32, ptr %5, align 4
  %7 = zext i32 %6 to i64
  %8 = getelementptr inbounds nuw i8, ptr %3, i64 %7
  ret ptr %8
}

; Function Attrs: alwaysinline nounwind uwtable
define internal i32 @validDatabase(ptr noundef %0) #3 {
  %2 = alloca i32, align 4
  %3 = alloca ptr, align 8
  store ptr %0, ptr %3, align 8
  %4 = load ptr, ptr %3, align 8
  %5 = icmp ne ptr %4, null
  br i1 %5, label %6, label %11

6:                                                ; preds = %1
  %7 = load ptr, ptr %3, align 8
  %8 = getelementptr inbounds nuw %struct.hs_database, ptr %7, i32 0, i32 0
  %9 = load i32, ptr %8, align 8
  %10 = icmp ne i32 %9, -606348325
  br i1 %10, label %11, label %12

11:                                               ; preds = %6, %1
  store i32 -1, ptr %2, align 4
  br label %19

12:                                               ; preds = %6
  %13 = load ptr, ptr %3, align 8
  %14 = getelementptr inbounds nuw %struct.hs_database, ptr %13, i32 0, i32 1
  %15 = load i32, ptr %14, align 4
  %16 = icmp ne i32 %15, 84148736
  br i1 %16, label %17, label %18

17:                                               ; preds = %12
  store i32 -5, ptr %2, align 4
  br label %19

18:                                               ; preds = %12
  store i32 0, ptr %2, align 4
  br label %19

19:                                               ; preds = %18, %17, %11
  %20 = load i32, ptr %2, align 4
  ret i32 %20
}

; Function Attrs: nounwind uwtable
define dso_local i32 @hs_stream_size(ptr noundef %0, ptr noundef %1) #0 {
  %3 = alloca i32, align 4
  %4 = alloca ptr, align 8
  %5 = alloca ptr, align 8
  %6 = alloca i32, align 4
  %7 = alloca i32, align 4
  %8 = alloca ptr, align 8
  %9 = alloca i32, align 4
  store ptr %0, ptr %4, align 8
  store ptr %1, ptr %5, align 8
  %10 = load ptr, ptr %5, align 8
  %11 = icmp ne ptr %10, null
  br i1 %11, label %13, label %12

12:                                               ; preds = %2
  store i32 -1, ptr %3, align 4
  br label %45

13:                                               ; preds = %2
  call void @llvm.lifetime.start.p0(i64 4, ptr %6) #13
  %14 = load ptr, ptr %4, align 8
  %15 = call i32 @validDatabase(ptr noundef %14)
  store i32 %15, ptr %6, align 4
  %16 = load i32, ptr %6, align 4
  %17 = icmp ne i32 %16, 0
  br i1 %17, label %18, label %20

18:                                               ; preds = %13
  %19 = load i32, ptr %6, align 4
  store i32 %19, ptr %3, align 4
  store i32 1, ptr %7, align 4
  br label %44

20:                                               ; preds = %13
  call void @llvm.lifetime.start.p0(i64 8, ptr %8) #13
  %21 = load ptr, ptr %4, align 8
  %22 = call ptr @hs_get_bytecode(ptr noundef %21)
  store ptr %22, ptr %8, align 8
  %23 = load ptr, ptr %8, align 8
  %24 = ptrtoint ptr %23 to i64
  %25 = and i64 %24, 15
  %26 = icmp eq i64 %25, 0
  br i1 %26, label %28, label %27

27:                                               ; preds = %20
  store i32 -1, ptr %3, align 4
  store i32 1, ptr %7, align 4
  br label %43

28:                                               ; preds = %20
  %29 = load ptr, ptr %8, align 8
  %30 = getelementptr inbounds nuw %struct.RoseEngine, ptr %29, i32 0, i32 9
  %31 = load i32, ptr %30, align 4
  %32 = icmp ne i32 %31, 2
  br i1 %32, label %33, label %34

33:                                               ; preds = %28
  store i32 -7, ptr %3, align 4
  store i32 1, ptr %7, align 4
  br label %43

34:                                               ; preds = %28
  call void @llvm.lifetime.start.p0(i64 4, ptr %9) #13
  %35 = load ptr, ptr %8, align 8
  %36 = getelementptr inbounds nuw %struct.RoseEngine, ptr %35, i32 0, i32 75
  %37 = getelementptr inbounds nuw %struct.RoseStateOffsets, ptr %36, i32 0, i32 22
  %38 = load i32, ptr %37, align 4
  store i32 %38, ptr %9, align 4
  %39 = load i32, ptr %9, align 4
  %40 = zext i32 %39 to i64
  %41 = add i64 %40, 16
  %42 = load ptr, ptr %5, align 8
  store i64 %41, ptr %42, align 8
  store i32 0, ptr %3, align 4
  store i32 1, ptr %7, align 4
  call void @llvm.lifetime.end.p0(i64 4, ptr %9) #13
  br label %43

43:                                               ; preds = %34, %33, %27
  call void @llvm.lifetime.end.p0(i64 8, ptr %8) #13
  br label %44

44:                                               ; preds = %43, %18
  call void @llvm.lifetime.end.p0(i64 4, ptr %6) #13
  br label %45

45:                                               ; preds = %44, %12
  %46 = load i32, ptr %3, align 4
  ret i32 %46
}