; Function Attrs: mustprogress nofree norecurse nosync nounwind willreturn memory(argmem: readwrite) uwtable
define dso_local range(i32 -7, 1) i32 @hs_stream_size(ptr noundef %0, ptr noundef writeonly %1) local_unnamed_addr #5 {
  %.not = icmp eq ptr %1, null
  %.not.i = icmp eq ptr %0, null
  %or.cond = or i1 %.not.i, %.not
  br i1 %or.cond, label %validDatabase.exit.thread, label %3

3:                                                ; preds = %2
  %4 = load i32, ptr %0, align 8
  %.not4.i = icmp eq i32 %4, -606348325
  br i1 %.not4.i, label %5, label %validDatabase.exit.thread

5:                                                ; preds = %3
  %6 = getelementptr inbounds nuw i8, ptr %0, i64 4
  %7 = load i32, ptr %6, align 4
  %.not5.i = icmp eq i32 %7, 84148736
  br i1 %.not5.i, label %validDatabase.exit, label %validDatabase.exit.thread

validDatabase.exit:                               ; preds = %5
  %8 = getelementptr inbounds nuw i8, ptr %0, i64 36
  %9 = load i32, ptr %8, align 4
  %10 = zext i32 %9 to i64
  %11 = getelementptr inbounds nuw i8, ptr %0, i64 %10
  %12 = ptrtoint ptr %11 to i64
  %13 = and i64 %12, 15
  %14 = icmp eq i64 %13, 0
  br i1 %14, label %15, label %validDatabase.exit.thread

15:                                               ; preds = %validDatabase.exit
  %16 = getelementptr inbounds nuw i8, ptr %11, i64 12
  %17 = load i32, ptr %16, align 4
  %.not13 = icmp eq i32 %17, 2
  br i1 %.not13, label %18, label %validDatabase.exit.thread

18:                                               ; preds = %15
  %19 = getelementptr inbounds nuw i8, ptr %11, i64 372
  %20 = load i32, ptr %19, align 4
  %21 = zext i32 %20 to i64
  %22 = add nuw nsw i64 %21, 16
  store i64 %22, ptr %1, align 8
  br label %validDatabase.exit.thread

validDatabase.exit.thread:                        ; preds = %5, %3, %15, %validDatabase.exit, %18, %2
  %.0 = phi i32 [ -1, %2 ], [ 0, %18 ], [ -1, %validDatabase.exit ], [ -7, %15 ], [ -5, %5 ], [ -1, %3 ]
  ret i32 %.0
}